; Function Attrs: mustprogress nounwind uwtable
define hidden noundef ptr @_ZNK4llvh23ItaniumPartialDemangler15getFunctionNameEPcPm(ptr nocapture noundef nonnull readonly align 8 dereferenceable(16) %this, ptr noundef %Buf, ptr noundef %N) local_unnamed_addr #1 align 2 {
entry:
  %0 = load ptr, ptr %this, align 8
  %K.i.i = getelementptr inbounds i8, ptr %0, i64 8
  %1 = load i8, ptr %K.i.i, align 8
  %cmp.i = icmp eq i8 %1, 18
  br i1 %cmp.i, label %if.end, label %return

if.end:                                           ; preds = %entry
  %Name.i = getelementptr inbounds i8, ptr %0, i64 24
  %2 = load ptr, ptr %Name.i, align 8
  %call3 = tail call fastcc noundef ptr @_ZL9printNodePKN4llvh16itanium_demangle4NodeEPcPm(ptr noundef %2, ptr noundef %Buf, ptr noundef %N)
  br label %return

return:                                           ; preds = %entry, %if.end
  %retval.0 = phi ptr [ %call3, %if.end ], [ null, %entry ]
  ret ptr %retval.0
}